; Function Attrs: uwtable
define void @_ZThn8_N8proxygen26PassThroughHTTPCodecFilter8onGoawayEmNS_9ErrorCodeESt10unique_ptrIN5folly5IOBufESt14default_deleteIS4_EE(ptr nocapture noundef readonly %this, i64 noundef %lastGoodStreamID, i8 noundef zeroext %code, ptr nocapture noundef %debugData) unnamed_addr #4 align 2 personality ptr @__gxx_personality_v0 {
entry:
  %agg.tmp.i = alloca %"class.std::unique_ptr.2", align 8
  call void @llvm.lifetime.start.p0(i64 8, ptr nonnull %agg.tmp.i)
  %callback_.i = getelementptr inbounds i8, ptr %this, i64 24
  %0 = load ptr, ptr %callback_.i, align 8
  %1 = load i64, ptr %debugData, align 8
  store i64 %1, ptr %agg.tmp.i, align 8
  store ptr null, ptr %debugData, align 8
  %vtable.i = load ptr, ptr %0, align 8
  %vfn.i = getelementptr inbounds i8, ptr %vtable.i, i64 96
  %2 = load ptr, ptr %vfn.i, align 8
  invoke void %2(ptr noundef nonnull align 8 dereferenceable(8) %0, i64 noundef %lastGoodStreamID, i8 noundef zeroext %code, ptr noundef nonnull %agg.tmp.i)
          to label %invoke.cont.i unwind label %lpad.i

invoke.cont.i:                                    ; preds = %entry
  %3 = load ptr, ptr %agg.tmp.i, align 8
  %cmp.not.i.i = icmp eq ptr %3, null
  br i1 %cmp.not.i.i, label %_ZN8proxygen26PassThroughHTTPCodecFilter8onGoawayEmNS_9ErrorCodeESt10unique_ptrIN5folly5IOBufESt14default_deleteIS4_EE.exit, label %_ZNKSt14default_deleteIN5folly5IOBufEEclEPS1_.exit.i.i

_ZNKSt14default_deleteIN5folly5IOBufEEclEPS1_.exit.i.i: ; preds = %invoke.cont.i
  call void @_ZN5folly5IOBufD1Ev(ptr noundef nonnull align 8 dereferenceable(56) %3) #15
  call void @_ZN5folly5IOBufdlEPv(ptr noundef nonnull %3) #15
  br label %_ZN8proxygen26PassThroughHTTPCodecFilter8onGoawayEmNS_9ErrorCodeESt10unique_ptrIN5folly5IOBufESt14default_deleteIS4_EE.exit

lpad.i:                                           ; preds = %entry
  %4 = landingpad { ptr, i32 }
          cleanup
  call void @_ZNSt10unique_ptrIN5folly5IOBufESt14default_deleteIS1_EED2Ev(ptr noundef nonnull align 8 dereferenceable(8) %agg.tmp.i) #15
  resume { ptr, i32 } %4

_ZN8proxygen26PassThroughHTTPCodecFilter8onGoawayEmNS_9ErrorCodeESt10unique_ptrIN5folly5IOBufESt14default_deleteIS4_EE.exit: ; preds = %invoke.cont.i, %_ZNKSt14default_deleteIN5folly5IOBufEEclEPS1_.exit.i.i
  call void @llvm.lifetime.end.p0(i64 8, ptr nonnull %agg.tmp.i)
  ret void
}